; Function Attrs: nounwind uwtable
define range(i32 -1, 1) i32 @H5ES__cancel(ptr noundef %0, ptr noundef %1, ptr noundef %2) local_unnamed_addr #0 {
  %4 = alloca %struct.H5ES_cancel_ctx_t, align 8
  call void @llvm.lifetime.start.p0(i64 24, ptr nonnull %4) #5
  %5 = load i8, ptr @H5ES_init_g, align 1, !tbaa !3, !range !7, !noundef !8
  %6 = trunc nuw i8 %5 to i1
  %7 = load i8, ptr @H5_libterm_g, align 1, !range !7
  %8 = trunc nuw i8 %7 to i1
  %9 = xor i1 %8, true
  %10 = select i1 %6, i1 true, i1 %9
  br i1 %10, label %11, label %21, !prof !9

11:                                               ; preds = %3
  store i64 0, ptr %1, align 8, !tbaa !10
  store i8 0, ptr %2, align 1, !tbaa !3
  store ptr %0, ptr %4, align 8, !tbaa !50
  %12 = getelementptr inbounds nuw i8, ptr %4, i64 8
  store ptr %1, ptr %12, align 8, !tbaa !52
  %13 = getelementptr inbounds nuw i8, ptr %4, i64 16
  store ptr %2, ptr %13, align 8, !tbaa !53
  %14 = getelementptr inbounds nuw i8, ptr %0, i64 40
  %15 = call i32 @H5ES__list_iterate(ptr noundef nonnull %14, i32 noundef 2, ptr noundef nonnull @H5ES__cancel_cb, ptr noundef nonnull %4) #5
  %16 = icmp slt i32 %15, 0
  br i1 %16, label %17, label %21

17:                                               ; preds = %11
  %18 = load i64, ptr @H5E_EVENTSET_g, align 8, !tbaa !10
  %19 = load i64, ptr @H5E_BADITER_g, align 8, !tbaa !10
  %20 = call i32 (ptr, ptr, i32, i64, i64, ptr, ...) @H5E_printf_stack(ptr noundef nonnull @.str, ptr noundef nonnull @__func__.H5ES__cancel, i32 noundef 857, i64 noundef %18, i64 noundef %19, ptr noundef nonnull @.str.10) #5
  br label %21

21:                                               ; preds = %17, %11, %3
  %.0 = phi i32 [ -1, %17 ], [ 0, %11 ], [ 0, %3 ]
  call void @llvm.lifetime.end.p0(i64 24, ptr nonnull %4) #5
  ret i32 %.0
}